#include <math.h>
#include <stdio.h>
#include <stdlib.h>
#include <string.h>

int main()
{int n,b[300],num=0,i=0;
char a[300][100];
while(scanf("%s",a[i])!=EOF)
{b[i]=strlen(a[i]);
i=i+1;
}
for(n=0;n<=i-1;n++)
{if(n==0)
printf("%d",b[n]);
else
printf(",%d",b[n]);}
  
   return 0;
}
